; Function Attrs: mustprogress uwtable
define hidden void @_ZN7datalog8rule_set13replace_rulesERKS0_(ptr noundef nonnull align 8 dereferenceable(248) %0, ptr noundef nonnull readonly align 8 captures(address) dereferenceable(248) %1) local_unnamed_addr #3 align 2 {
  %.not = icmp eq ptr %0, %1
  br i1 %.not, label %12, label %3

3:                                                ; preds = %2
  tail call void @_ZN7datalog8rule_set5resetEv(ptr noundef nonnull align 8 dereferenceable(248) %0)
  %4 = getelementptr inbounds nuw i8, ptr %1, i64 24
  %5 = load ptr, ptr %4, align 8, !tbaa !80
  %6 = icmp eq ptr %5, null
  br i1 %6, label %_ZN7datalog8rule_set9add_rulesERKS0_.exit, label %_ZNK7datalog8rule_set13get_num_rulesEv.exit.i

_ZNK7datalog8rule_set13get_num_rulesEv.exit.i:    ; preds = %3
  %7 = getelementptr inbounds i8, ptr %5, i64 -4
  %8 = load i32, ptr %7, align 4, !tbaa !83
  %.not.i = icmp eq i32 %8, 0
  br i1 %.not.i, label %_ZN7datalog8rule_set9add_rulesERKS0_.exit, label %.lr.ph.preheader.i

.lr.ph.preheader.i:                               ; preds = %_ZNK7datalog8rule_set13get_num_rulesEv.exit.i
  %wide.trip.count.i = zext i32 %8 to i64
  br label %.lr.ph.i

.lr.ph.i:                                         ; preds = %.lr.ph.i, %.lr.ph.preheader.i
  %indvars.iv.i = phi i64 [ 0, %.lr.ph.preheader.i ], [ %indvars.iv.next.i, %.lr.ph.i ]
  %9 = load ptr, ptr %4, align 8, !tbaa !80
  %10 = getelementptr inbounds nuw ptr, ptr %9, i64 %indvars.iv.i
  %11 = load ptr, ptr %10, align 8, !tbaa !84
  tail call void @_ZN7datalog8rule_set8add_ruleEPNS_4ruleE(ptr noundef nonnull align 8 dereferenceable(248) %0, ptr noundef %11)
  %indvars.iv.next.i = add nuw nsw i64 %indvars.iv.i, 1
  %exitcond.not.i = icmp eq i64 %indvars.iv.next.i, %wide.trip.count.i
  br i1 %exitcond.not.i, label %_ZN7datalog8rule_set9add_rulesERKS0_.exit, label %.lr.ph.i, !llvm.loop !327

_ZN7datalog8rule_set9add_rulesERKS0_.exit:        ; preds = %.lr.ph.i, %3, %_ZNK7datalog8rule_set13get_num_rulesEv.exit.i
  tail call void @_ZN7datalog8rule_set18inherit_predicatesERKS0_(ptr noundef nonnull align 8 dereferenceable(248) %0, ptr noundef nonnull readonly align 8 dereferenceable(248) %1)
  br label %12

12:                                               ; preds = %_ZN7datalog8rule_set9add_rulesERKS0_.exit, %2
  ret void
}